target datalayout = "e-m:e-p270:32:32-p271:32:32-p272:64:64-i64:64-i128:128-f80:128-n8:16:32:64-S128"
target triple = "x86_64-pc-linux-gnu"

%struct._prefix_stats = type { ptr, i64, i64, i64, i64, i64, ptr }

@prefix_delimiter = internal global i8 0, align 1
@prefix_stats = internal global [256 x ptr] zeroinitializer, align 16
@num_prefixes = internal global i32 0, align 4
@total_prefix_size = internal global i32 0, align 4
@hash = external global ptr, align 8
@.str = private unnamed_addr constant [49 x i8] c"Can't allocate space for stats structure: calloc\00", align 1
@.str.1 = private unnamed_addr constant [48 x i8] c"Can't allocate space for copy of prefix: malloc\00", align 1

; Function Attrs: nounwind uwtable
define dso_local ptr @stats_prefix_find(ptr noundef %0, i64 noundef %1) #0 {
  %3 = alloca ptr, align 8
  %4 = alloca ptr, align 8
  %5 = alloca i64, align 8
  %6 = alloca ptr, align 8
  %7 = alloca i32, align 4
  %8 = alloca i64, align 8
  %9 = alloca i8, align 1
  %10 = alloca i32, align 4
  store ptr %0, ptr %4, align 8, !tbaa !20
  store i64 %1, ptr %5, align 8, !tbaa !21
  call void @llvm.lifetime.start.p0(i64 8, ptr %6) #9
  call void @llvm.lifetime.start.p0(i64 4, ptr %7) #9
  call void @llvm.lifetime.start.p0(i64 8, ptr %8) #9
  call void @llvm.lifetime.start.p0(i64 1, ptr %9) #9
  store i8 1, ptr %9, align 1, !tbaa !22
  store i64 0, ptr %8, align 8, !tbaa !21
  br label %11

11:                                               ; preds = %35, %2
  %12 = load i64, ptr %8, align 8, !tbaa !21
  %13 = load i64, ptr %5, align 8, !tbaa !21
  %14 = icmp ult i64 %12, %13
  br i1 %14, label %15, label %22

15:                                               ; preds = %11
  %16 = load ptr, ptr %4, align 8, !tbaa !20
  %17 = load i64, ptr %8, align 8, !tbaa !21
  %18 = getelementptr inbounds nuw i8, ptr %16, i64 %17
  %19 = load i8, ptr %18, align 1, !tbaa !4
  %20 = sext i8 %19 to i32
  %21 = icmp ne i32 %20, 0
  br label %22

22:                                               ; preds = %15, %11
  %23 = phi i1 [ false, %11 ], [ %21, %15 ]
  br i1 %23, label %24, label %38

24:                                               ; preds = %22
  %25 = load ptr, ptr %4, align 8, !tbaa !20
  %26 = load i64, ptr %8, align 8, !tbaa !21
  %27 = getelementptr inbounds nuw i8, ptr %25, i64 %26
  %28 = load i8, ptr %27, align 1, !tbaa !4
  %29 = sext i8 %28 to i32
  %30 = load i8, ptr @prefix_delimiter, align 1, !tbaa !4
  %31 = sext i8 %30 to i32
  %32 = icmp eq i32 %29, %31
  br i1 %32, label %33, label %34

33:                                               ; preds = %24
  store i8 0, ptr %9, align 1, !tbaa !22
  br label %38

34:                                               ; preds = %24
  br label %35

35:                                               ; preds = %34
  %36 = load i64, ptr %8, align 8, !tbaa !21
  %37 = add i64 %36, 1
  store i64 %37, ptr %8, align 8, !tbaa !21
  br label %11, !llvm.loop !24

38:                                               ; preds = %33, %22
  %39 = load i8, ptr %9, align 1, !tbaa !22, !range !25, !noundef !26
  %40 = trunc i8 %39 to i1
  br i1 %40, label %41, label %42

41:                                               ; preds = %38
  store ptr null, ptr %3, align 8
  store i32 1, ptr %10, align 4
  br label %120

42:                                               ; preds = %38
  %43 = load ptr, ptr @hash, align 8, !tbaa !27
  %44 = load ptr, ptr %4, align 8, !tbaa !20
  %45 = load i64, ptr %8, align 8, !tbaa !21
  %46 = call i32 %43(ptr noundef %44, i64 noundef %45)
  %47 = urem i32 %46, 256
  store i32 %47, ptr %7, align 4, !tbaa !7
  %48 = load i32, ptr %7, align 4, !tbaa !7
  %49 = zext i32 %48 to i64
  %50 = getelementptr inbounds nuw [256 x ptr], ptr @prefix_stats, i64 0, i64 %49
  %51 = load ptr, ptr %50, align 8, !tbaa !9
  store ptr %51, ptr %6, align 8, !tbaa !9
  br label %52

52:                                               ; preds = %66, %42
  %53 = load ptr, ptr %6, align 8, !tbaa !9
  %54 = icmp ne ptr null, %53
  br i1 %54, label %55, label %70

55:                                               ; preds = %52
  %56 = load ptr, ptr %6, align 8, !tbaa !9
  %57 = getelementptr inbounds nuw %struct._prefix_stats, ptr %56, i32 0, i32 0
  %58 = load ptr, ptr %57, align 8, !tbaa !16
  %59 = load ptr, ptr %4, align 8, !tbaa !20
  %60 = load i64, ptr %8, align 8, !tbaa !21
  %61 = call i32 @strncmp(ptr noundef %58, ptr noundef %59, i64 noundef %60) #10
  %62 = icmp eq i32 %61, 0
  br i1 %62, label %63, label %65

63:                                               ; preds = %55
  %64 = load ptr, ptr %6, align 8, !tbaa !9
  store ptr %64, ptr %3, align 8
  store i32 1, ptr %10, align 4
  br label %120

65:                                               ; preds = %55
  br label %66

66:                                               ; preds = %65
  %67 = load ptr, ptr %6, align 8, !tbaa !9
  %68 = getelementptr inbounds nuw %struct._prefix_stats, ptr %67, i32 0, i32 6
  %69 = load ptr, ptr %68, align 8, !tbaa !12
  store ptr %69, ptr %6, align 8, !tbaa !9
  br label %52, !llvm.loop !28

70:                                               ; preds = %52
  %71 = call noalias ptr @calloc(i64 noundef 56, i64 noundef 1) #11
  store ptr %71, ptr %6, align 8, !tbaa !9
  %72 = load ptr, ptr %6, align 8, !tbaa !9
  %73 = icmp eq ptr null, %72
  br i1 %73, label %74, label %75

74:                                               ; preds = %70
  call void @perror(ptr noundef @.str)
  store ptr null, ptr %3, align 8
  store i32 1, ptr %10, align 4
  br label %120

75:                                               ; preds = %70
  %76 = load i64, ptr %8, align 8, !tbaa !21
  %77 = add i64 %76, 1
  %78 = call noalias ptr @malloc(i64 noundef %77) #12
  %79 = load ptr, ptr %6, align 8, !tbaa !9
  %80 = getelementptr inbounds nuw %struct._prefix_stats, ptr %79, i32 0, i32 0
  store ptr %78, ptr %80, align 8, !tbaa !16
  %81 = load ptr, ptr %6, align 8, !tbaa !9
  %82 = getelementptr inbounds nuw %struct._prefix_stats, ptr %81, i32 0, i32 0
  %83 = load ptr, ptr %82, align 8, !tbaa !16
  %84 = icmp eq ptr null, %83
  br i1 %84, label %85, label %87

85:                                               ; preds = %75
  call void @perror(ptr noundef @.str.1)
  %86 = load ptr, ptr %6, align 8, !tbaa !9
  call void @free(ptr noundef %86) #9
  store ptr null, ptr %3, align 8
  store i32 1, ptr %10, align 4
  br label %120

87:                                               ; preds = %75
  %88 = load ptr, ptr %6, align 8, !tbaa !9
  %89 = getelementptr inbounds nuw %struct._prefix_stats, ptr %88, i32 0, i32 0
  %90 = load ptr, ptr %89, align 8, !tbaa !16
  %91 = load ptr, ptr %4, align 8, !tbaa !20
  %92 = load i64, ptr %8, align 8, !tbaa !21
  %93 = call ptr @strncpy(ptr noundef %90, ptr noundef %91, i64 noundef %92) #9
  %94 = load ptr, ptr %6, align 8, !tbaa !9
  %95 = getelementptr inbounds nuw %struct._prefix_stats, ptr %94, i32 0, i32 0
  %96 = load ptr, ptr %95, align 8, !tbaa !16
  %97 = load i64, ptr %8, align 8, !tbaa !21
  %98 = getelementptr inbounds nuw i8, ptr %96, i64 %97
  store i8 0, ptr %98, align 1, !tbaa !4
  %99 = load i64, ptr %8, align 8, !tbaa !21
  %100 = load ptr, ptr %6, align 8, !tbaa !9
  %101 = getelementptr inbounds nuw %struct._prefix_stats, ptr %100, i32 0, i32 1
  store i64 %99, ptr %101, align 8, !tbaa !29
  %102 = load i32, ptr %7, align 4, !tbaa !7
  %103 = zext i32 %102 to i64
  %104 = getelementptr inbounds nuw [256 x ptr], ptr @prefix_stats, i64 0, i64 %103
  %105 = load ptr, ptr %104, align 8, !tbaa !9
  %106 = load ptr, ptr %6, align 8, !tbaa !9
  %107 = getelementptr inbounds nuw %struct._prefix_stats, ptr %106, i32 0, i32 6
  store ptr %105, ptr %107, align 8, !tbaa !12
  %108 = load ptr, ptr %6, align 8, !tbaa !9
  %109 = load i32, ptr %7, align 4, !tbaa !7
  %110 = zext i32 %109 to i64
  %111 = getelementptr inbounds nuw [256 x ptr], ptr @prefix_stats, i64 0, i64 %110
  store ptr %108, ptr %111, align 8, !tbaa !9
  %112 = load i32, ptr @num_prefixes, align 4, !tbaa !7
  %113 = add nsw i32 %112, 1
  store i32 %113, ptr @num_prefixes, align 4, !tbaa !7
  %114 = load i64, ptr %8, align 8, !tbaa !21
  %115 = load i32, ptr @total_prefix_size, align 4, !tbaa !7
  %116 = sext i32 %115 to i64
  %117 = add i64 %116, %114
  %118 = trunc i64 %117 to i32
  store i32 %118, ptr @total_prefix_size, align 4, !tbaa !7
  %119 = load ptr, ptr %6, align 8, !tbaa !9
  store ptr %119, ptr %3, align 8
  store i32 1, ptr %10, align 4
  br label %120

120:                                              ; preds = %87, %85, %74, %63, %41
  call void @llvm.lifetime.end.p0(i64 1, ptr %9) #9
  call void @llvm.lifetime.end.p0(i64 8, ptr %8) #9
  call void @llvm.lifetime.end.p0(i64 4, ptr %7) #9
  call void @llvm.lifetime.end.p0(i64 8, ptr %6) #9
  %121 = load ptr, ptr %3, align 8
  ret ptr %121
}