; Function Attrs: nounwind uwtable
define dso_local noundef ptr @stats_prefix_find(ptr noundef %0, i64 noundef %1) local_unnamed_addr #2 {
  %.not52 = icmp eq i64 %1, 0
  br i1 %.not52, label %.critedge42, label %.lr.ph

.lr.ph:                                           ; preds = %2
  %3 = load i8, ptr @prefix_delimiter, align 1
  br label %4

4:                                                ; preds = %.lr.ph, %9
  %.03546 = phi i64 [ 0, %.lr.ph ], [ %10, %9 ]
  %5 = getelementptr inbounds nuw i8, ptr %0, i64 %.03546
  %6 = load i8, ptr %5, align 1, !tbaa !4
  %.not = icmp eq i8 %6, 0
  br i1 %.not, label %.critedge42, label %7

7:                                                ; preds = %4
  %8 = icmp eq i8 %6, %3
  br i1 %8, label %.critedge, label %9

9:                                                ; preds = %7
  %10 = add nuw i64 %.03546, 1
  %exitcond.not = icmp eq i64 %10, %1
  br i1 %exitcond.not, label %.critedge42, label %4, !llvm.loop !20

.critedge:                                        ; preds = %7
  %11 = load ptr, ptr @hash, align 8, !tbaa !21
  %12 = tail call i32 %11(ptr noundef nonnull %0, i64 noundef %.03546) #11
  %13 = and i32 %12, 255
  %14 = zext nneg i32 %13 to i64
  %15 = getelementptr inbounds nuw [256 x ptr], ptr @prefix_stats, i64 0, i64 %14
  %.03748 = load ptr, ptr %15, align 8, !tbaa !7
  %.not4149 = icmp eq ptr %.03748, null
  br i1 %.not4149, label %._crit_edge, label %.lr.ph51

.lr.ph51:                                         ; preds = %.critedge, %19
  %.03750 = phi ptr [ %.037, %19 ], [ %.03748, %.critedge ]
  %16 = load ptr, ptr %.03750, align 8, !tbaa !14
  %17 = tail call i32 @strncmp(ptr noundef %16, ptr noundef nonnull %0, i64 noundef %.03546) #12
  %18 = icmp eq i32 %17, 0
  br i1 %18, label %.critedge42, label %19

19:                                               ; preds = %.lr.ph51
  %20 = getelementptr inbounds nuw i8, ptr %.03750, i64 48
  %.037 = load ptr, ptr %20, align 8, !tbaa !7
  %.not41 = icmp eq ptr %.037, null
  br i1 %.not41, label %._crit_edge, label %.lr.ph51, !llvm.loop !22

._crit_edge:                                      ; preds = %19, %.critedge
  %21 = tail call noalias dereferenceable_or_null(56) ptr @calloc(i64 noundef 56, i64 noundef 1) #13
  %22 = icmp eq ptr %21, null
  br i1 %22, label %23, label %24

23:                                               ; preds = %._crit_edge
  tail call void @perror(ptr noundef nonnull @.str) #14
  br label %.critedge42

24:                                               ; preds = %._crit_edge
  %25 = add i64 %.03546, 1
  %26 = tail call noalias ptr @malloc(i64 noundef %25) #15
  store ptr %26, ptr %21, align 8, !tbaa !14
  %27 = icmp eq ptr %26, null
  br i1 %27, label %28, label %29

28:                                               ; preds = %24
  tail call void @perror(ptr noundef nonnull @.str.1) #14
  tail call void @free(ptr noundef nonnull %21) #11
  br label %.critedge42

29:                                               ; preds = %24
  %30 = tail call ptr @strncpy(ptr noundef nonnull %26, ptr noundef nonnull %0, i64 noundef %.03546) #11
  %31 = getelementptr inbounds nuw i8, ptr %26, i64 %.03546
  store i8 0, ptr %31, align 1, !tbaa !4
  %32 = getelementptr inbounds nuw i8, ptr %21, i64 8
  store i64 %.03546, ptr %32, align 8, !tbaa !23
  %33 = getelementptr inbounds nuw i8, ptr %21, i64 48
  store ptr %.03748, ptr %33, align 8, !tbaa !10
  store ptr %21, ptr %15, align 8, !tbaa !7
  %34 = load i32, ptr @num_prefixes, align 4, !tbaa !18
  %35 = add nsw i32 %34, 1
  store i32 %35, ptr @num_prefixes, align 4, !tbaa !18
  %36 = load i32, ptr @total_prefix_size, align 4, !tbaa !18
  %37 = trunc i64 %.03546 to i32
  %38 = add i32 %36, %37
  store i32 %38, ptr @total_prefix_size, align 4, !tbaa !18
  br label %.critedge42

.critedge42:                                      ; preds = %9, %4, %.lr.ph51, %2, %29, %28, %23
  %.036 = phi ptr [ null, %23 ], [ null, %28 ], [ %21, %29 ], [ null, %2 ], [ %.03750, %.lr.ph51 ], [ null, %4 ], [ null, %9 ]
  ret ptr %.036
}